target datalayout = "e-m:e-p270:32:32-p271:32:32-p272:64:64-i64:64-i128:128-f80:128-n8:16:32:64-S128"
target triple = "x86_64-pc-linux-gnu"

%union.pthread_mutex_t = type { %struct.__pthread_mutex_s }
%struct.__pthread_mutex_s = type { i32, i32, i32, i32, i32, i16, i16, %struct.__pthread_internal_list }
%struct.__pthread_internal_list = type { ptr, ptr }

@.str.5 = private unnamed_addr constant [29 x i8] c"%s: pthread_mutex_lock(): %m\00", align 1
@.str.8 = private unnamed_addr constant [31 x i8] c"%s: pthread_mutex_unlock(): %m\00", align 1
@suspended_mutex = internal global %union.pthread_mutex_t zeroinitializer, align 8
@acct_gather_suspended = internal global i8 0, align 1
@__func__.acct_gather_suspend_test = private unnamed_addr constant [25 x i8] c"acct_gather_suspend_test\00", align 1

; Function Attrs: nounwind uwtable
define dso_local zeroext i1 @acct_gather_suspend_test() #0 {
  %1 = alloca i8, align 1
  %2 = alloca i32, align 4
  %3 = alloca i32, align 4
  call void @llvm.lifetime.start.p0(i64 1, ptr %1) #6
  br label %4

4:                                                ; preds = %0
  call void @llvm.lifetime.start.p0(i64 4, ptr %2) #6
  %5 = call i32 @pthread_mutex_lock(ptr noundef @suspended_mutex) #6
  store i32 %5, ptr %2, align 4
  %6 = load i32, ptr %2, align 4
  %7 = icmp ne i32 %6, 0
  br i1 %7, label %8, label %11

8:                                                ; preds = %4
  %9 = load i32, ptr %2, align 4
  %10 = call ptr @__errno_location() #8
  store i32 %9, ptr %10, align 4
  call void (ptr, ...) @fatal_abort(ptr noundef @.str.5, ptr noundef @__func__.acct_gather_suspend_test) #7
  unreachable

11:                                               ; preds = %4
  call void @llvm.lifetime.end.p0(i64 4, ptr %2) #6
  br label %12

12:                                               ; preds = %11
  br label %13

13:                                               ; preds = %12
  %14 = load i8, ptr @acct_gather_suspended, align 1, !range !8, !noundef !9
  %15 = trunc i8 %14 to i1
  %16 = zext i1 %15 to i8
  store i8 %16, ptr %1, align 1
  br label %17

17:                                               ; preds = %13
  call void @llvm.lifetime.start.p0(i64 4, ptr %3) #6
  %18 = call i32 @pthread_mutex_unlock(ptr noundef @suspended_mutex) #6
  store i32 %18, ptr %3, align 4
  %19 = load i32, ptr %3, align 4
  %20 = icmp ne i32 %19, 0
  br i1 %20, label %21, label %24

21:                                               ; preds = %17
  %22 = load i32, ptr %3, align 4
  %23 = call ptr @__errno_location() #8
  store i32 %22, ptr %23, align 4
  call void (ptr, ...) @fatal_abort(ptr noundef @.str.8, ptr noundef @__func__.acct_gather_suspend_test) #7
  unreachable

24:                                               ; preds = %17
  call void @llvm.lifetime.end.p0(i64 4, ptr %3) #6
  br label %25

25:                                               ; preds = %24
  br label %26

26:                                               ; preds = %25
  %27 = load i8, ptr %1, align 1, !range !8, !noundef !9
  %28 = trunc i8 %27 to i1
  call void @llvm.lifetime.end.p0(i64 1, ptr %1) #6
  ret i1 %28
}